; Function Attrs: mustprogress uwtable
define internal noundef zeroext i1 @"_ZNSt17_Function_handlerIFbRDnPKN4Json5ValueEP11cmJSONStateEZN27cmCMakePresetsGraphInternal12VendorHelperERKSt8functionIFvS4_S6_EEE3$_0E9_M_invokeERKSt9_Any_dataS0_OS4_OS6_"(ptr nocapture noundef nonnull readonly align 8 dereferenceable(16) %0, ptr nocapture nonnull readnone align 8 %1, ptr nocapture noundef nonnull readonly align 8 dereferenceable(8) %2, ptr nocapture noundef nonnull readonly align 8 dereferenceable(8) %3) #3 align 2 {
  %5 = alloca ptr, align 8
  %6 = alloca ptr, align 8
  %.val = load ptr, ptr %0, align 8
  %.val4 = load ptr, ptr %2, align 8
  %.val5 = load ptr, ptr %3, align 8
  %.not.i.i.i = icmp eq ptr %.val4, null
  br i1 %.not.i.i.i, label %"_ZSt10__invoke_rIbRZN27cmCMakePresetsGraphInternal12VendorHelperERKSt8functionIFvPKN4Json5ValueEP11cmJSONStateEEE3$_0JRDnS5_S7_EENSt9enable_ifIX16is_invocable_r_vIT_T0_DpT1_EESG_E4typeEOSH_DpOSI_.exit", label %7

7:                                                ; preds = %4
  %8 = tail call noundef zeroext i1 @_ZNK4Json5Value8isObjectEv(ptr noundef nonnull align 8 dereferenceable(40) %.val4)
  br i1 %8, label %"_ZSt10__invoke_rIbRZN27cmCMakePresetsGraphInternal12VendorHelperERKSt8functionIFvPKN4Json5ValueEP11cmJSONStateEEE3$_0JRDnS5_S7_EENSt9enable_ifIX16is_invocable_r_vIT_T0_DpT1_EESG_E4typeEOSH_DpOSI_.exit", label %9

9:                                                ; preds = %7
  call void @llvm.lifetime.start.p0(i64 8, ptr nonnull %5)
  call void @llvm.lifetime.start.p0(i64 8, ptr nonnull %6)
  store ptr %.val4, ptr %5, align 8
  store ptr %.val5, ptr %6, align 8
  %10 = getelementptr inbounds i8, ptr %.val, i64 16
  %11 = load ptr, ptr %10, align 8
  %.not.i.i.i.i.i = icmp eq ptr %11, null
  br i1 %.not.i.i.i.i.i, label %12, label %_ZNKSt8functionIFvPKN4Json5ValueEP11cmJSONStateEEclES3_S5_.exit.i.i.i

12:                                               ; preds = %9
  tail call void @_ZSt25__throw_bad_function_callv() #24
  unreachable

_ZNKSt8functionIFvPKN4Json5ValueEP11cmJSONStateEEclES3_S5_.exit.i.i.i: ; preds = %9
  %13 = getelementptr inbounds i8, ptr %.val, i64 24
  %14 = load ptr, ptr %13, align 8
  call void %14(ptr noundef nonnull align 8 dereferenceable(16) %.val, ptr noundef nonnull align 8 dereferenceable(8) %5, ptr noundef nonnull align 8 dereferenceable(8) %6)
  call void @llvm.lifetime.end.p0(i64 8, ptr nonnull %5)
  call void @llvm.lifetime.end.p0(i64 8, ptr nonnull %6)
  br label %"_ZSt10__invoke_rIbRZN27cmCMakePresetsGraphInternal12VendorHelperERKSt8functionIFvPKN4Json5ValueEP11cmJSONStateEEE3$_0JRDnS5_S7_EENSt9enable_ifIX16is_invocable_r_vIT_T0_DpT1_EESG_E4typeEOSH_DpOSI_.exit"

"_ZSt10__invoke_rIbRZN27cmCMakePresetsGraphInternal12VendorHelperERKSt8functionIFvPKN4Json5ValueEP11cmJSONStateEEE3$_0JRDnS5_S7_EENSt9enable_ifIX16is_invocable_r_vIT_T0_DpT1_EESG_E4typeEOSH_DpOSI_.exit": ; preds = %4, %7, %_ZNKSt8functionIFvPKN4Json5ValueEP11cmJSONStateEEclES3_S5_.exit.i.i.i
  %.0.i.i.i = phi i1 [ false, %_ZNKSt8functionIFvPKN4Json5ValueEP11cmJSONStateEEclES3_S5_.exit.i.i.i ], [ true, %4 ], [ true, %7 ]
  ret i1 %.0.i.i.i
}